(lp1
VreshaSningrum
p2
aVRationalFX
p3
aVprateet_the1st
p4
aVFannymaelani27
p5
aVanukeW
p6
aVahmed_tharwat44
p7
aVehaanclothing
p8
aVSamsonSalve5
p9
aVSami_Noor_
p10
aVviacheslavserg6
p11
aVdebeon_official
p12
aVdeep_thehuman
p13
aVchiellalala03
p14
aVrxhosam
p15
aVtbestdatingapps
p16
aVKingLVRA
p17
aVoooo_mar
p18
ag18
ag18
aV2darknight3
p19
aVIhsanB1
p20
aVAzozAlghamde
p21
aVNathy_7915
p22
aVMAJickiss_
p23
aVPojarroKingdom
p24
aVnelson_milez
p25
aVlashwanap
p26
aVmc2foriginal
p27
aVJoelmaPearl
p28
aVA7mdLShinawy
p29
aVmasdidit93
p30
aVnikhilrajputroc
p31
aVjke_fgnt
p32
aVMelaninMaria
p33
aVsomoracz_leila
p34
aVmark_pelzer_98
p35
ag24
ag25
ag26
ag27
ag28
ag29
ag30
ag31
ag32
ag33
ag34
ag35
aVpaularusher16
p36
aVPejaa_
p37
aVAntiIsis17
p38
aVDrewballa22
p39
aVjoshtyson5592
p40
aVBeatboxInd
p41
aVeka8073prakarsa
p42
aVavilegha4
p43
aVJaxenZarate
p44
aVemilie_thrane
p45
aVRicardoLF22
p46
aVAliRajput42
p47
aVyadhu_shetty11
p48
aVRahulSingh1877
p49
aVi_NehaTiwari
p50
aVPasion_Roja123
p51
ag51
ag51
ag51
aVThammy1998
p52
ag51
ag52
aVfunnie2345
p53
aVaquaviverey
p54
aVZoeyFox6
p55
aVArivu8606
p56
aVVishalV683
p57
aVaalbertjac
p58
aVoxghn
p59
aVascendido11
p60
aVEvanHead711
p61
aVimdgreatt
p62
aV_jikookiejar
p63
aVCHULO369
p64
aVkayla_favour
p65
aVissaerra
p66
aVjaileypurposw
p67
aVJacksonRThomas9
p68
aVjuullliiieeeenn
p69
aVRizQun_Al
p70
aVRuan_Matheus_Rm
p71
aVkarn_kush
p72
aVim_papi23
p73
aVraijalofficial
p74
aVdekobscafe
p75
aVSneakerLynx
p76
aVsaltyjiminie
p77
aVEverythingEMZ
p78
aVpiyan_sni
p79
aVJoeverton_BetaL
p80
aVUltrainfected
p81
aVoxghn1
p82
aVNoahBouchet5
p83
aV6Hacksinfected6
p84
aVpolar_like
p85
aVPPTenel13
p86
aVXintiaB
p87
aVtonybulletooth
p88
aVpunsimon0971
p89
aVericka1605
p90
aVPetrosPaspa
p91
aVSantytheri
p92
aVgrendalizortiz
p93
aVihmisroska
p94
aVmc_maikitoofc1
p95
aVjw550971
p96
aValiffikman
p97
aVKiddozilla
p98
aV88Couto
p99
aVbrianfe15
p100
aVJustinVenezuel3
p101
aVrzkrmdhann
p102
aVpuppylvr135
p103
aVunusuariode2
p104
a.